target datalayout = "e-m:e-p270:32:32-p271:32:32-p272:64:64-i64:64-i128:128-f80:128-n8:16:32:64-S128"
target triple = "x86_64-pc-linux-gnu"

%class.Triangle = type { [3 x [3 x double]] }

@_ZN13MarchingCubes10vertexListE = global [12 x [3 x double]] zeroinitializer, align 16

; Function Attrs: mustprogress nounwind uwtable
define noundef i32 @_ZN4Cube11CornerIndexEiii(i32 noundef %0, i32 noundef %1, i32 noundef %2) #1 align 2 {
  %4 = alloca i32, align 4
  %5 = alloca i32, align 4
  %6 = alloca i32, align 4
  store i32 %0, ptr %4, align 4
  store i32 %1, ptr %5, align 4
  store i32 %2, ptr %6, align 4
  %7 = load i32, ptr %6, align 4
  %8 = shl i32 %7, 2
  %9 = load i32, ptr %5, align 4
  %10 = shl i32 %9, 1
  %11 = or i32 %8, %10
  %12 = load i32, ptr %4, align 4
  %13 = or i32 %11, %12
  ret i32 %13
}

; Function Attrs: mustprogress nounwind uwtable
define noundef zeroext i8 @_ZN13MarchingCubes8GetIndexEPKff(ptr noundef %0, float noundef %1) #1 align 2 {
  %3 = alloca ptr, align 8
  %4 = alloca float, align 4
  %5 = alloca i8, align 1
  store ptr %0, ptr %3, align 8
  store float %1, ptr %4, align 4
  store i8 0, ptr %5, align 1
  %6 = load ptr, ptr %3, align 8
  %7 = call noundef i32 @_ZN4Cube11CornerIndexEiii(i32 noundef 0, i32 noundef 0, i32 noundef 0)
  %8 = sext i32 %7 to i64
  %9 = getelementptr inbounds float, ptr %6, i64 %8
  %10 = load float, ptr %9, align 4
  %11 = load float, ptr %4, align 4
  %12 = fcmp olt float %10, %11
  br i1 %12, label %13, label %18

13:                                               ; preds = %2
  %14 = load i8, ptr %5, align 1
  %15 = zext i8 %14 to i32
  %16 = or i32 %15, 1
  %17 = trunc i32 %16 to i8
  store i8 %17, ptr %5, align 1
  br label %18

18:                                               ; preds = %13, %2
  %19 = load ptr, ptr %3, align 8
  %20 = call noundef i32 @_ZN4Cube11CornerIndexEiii(i32 noundef 1, i32 noundef 0, i32 noundef 0)
  %21 = sext i32 %20 to i64
  %22 = getelementptr inbounds float, ptr %19, i64 %21
  %23 = load float, ptr %22, align 4
  %24 = load float, ptr %4, align 4
  %25 = fcmp olt float %23, %24
  br i1 %25, label %26, label %31

26:                                               ; preds = %18
  %27 = load i8, ptr %5, align 1
  %28 = zext i8 %27 to i32
  %29 = or i32 %28, 2
  %30 = trunc i32 %29 to i8
  store i8 %30, ptr %5, align 1
  br label %31

31:                                               ; preds = %26, %18
  %32 = load ptr, ptr %3, align 8
  %33 = call noundef i32 @_ZN4Cube11CornerIndexEiii(i32 noundef 1, i32 noundef 1, i32 noundef 0)
  %34 = sext i32 %33 to i64
  %35 = getelementptr inbounds float, ptr %32, i64 %34
  %36 = load float, ptr %35, align 4
  %37 = load float, ptr %4, align 4
  %38 = fcmp olt float %36, %37
  br i1 %38, label %39, label %44

39:                                               ; preds = %31
  %40 = load i8, ptr %5, align 1
  %41 = zext i8 %40 to i32
  %42 = or i32 %41, 4
  %43 = trunc i32 %42 to i8
  store i8 %43, ptr %5, align 1
  br label %44

44:                                               ; preds = %39, %31
  %45 = load ptr, ptr %3, align 8
  %46 = call noundef i32 @_ZN4Cube11CornerIndexEiii(i32 noundef 0, i32 noundef 1, i32 noundef 0)
  %47 = sext i32 %46 to i64
  %48 = getelementptr inbounds float, ptr %45, i64 %47
  %49 = load float, ptr %48, align 4
  %50 = load float, ptr %4, align 4
  %51 = fcmp olt float %49, %50
  br i1 %51, label %52, label %57

52:                                               ; preds = %44
  %53 = load i8, ptr %5, align 1
  %54 = zext i8 %53 to i32
  %55 = or i32 %54, 8
  %56 = trunc i32 %55 to i8
  store i8 %56, ptr %5, align 1
  br label %57

57:                                               ; preds = %52, %44
  %58 = load ptr, ptr %3, align 8
  %59 = call noundef i32 @_ZN4Cube11CornerIndexEiii(i32 noundef 0, i32 noundef 0, i32 noundef 1)
  %60 = sext i32 %59 to i64
  %61 = getelementptr inbounds float, ptr %58, i64 %60
  %62 = load float, ptr %61, align 4
  %63 = load float, ptr %4, align 4
  %64 = fcmp olt float %62, %63
  br i1 %64, label %65, label %70

65:                                               ; preds = %57
  %66 = load i8, ptr %5, align 1
  %67 = zext i8 %66 to i32
  %68 = or i32 %67, 16
  %69 = trunc i32 %68 to i8
  store i8 %69, ptr %5, align 1
  br label %70

70:                                               ; preds = %65, %57
  %71 = load ptr, ptr %3, align 8
  %72 = call noundef i32 @_ZN4Cube11CornerIndexEiii(i32 noundef 1, i32 noundef 0, i32 noundef 1)
  %73 = sext i32 %72 to i64
  %74 = getelementptr inbounds float, ptr %71, i64 %73
  %75 = load float, ptr %74, align 4
  %76 = load float, ptr %4, align 4
  %77 = fcmp olt float %75, %76
  br i1 %77, label %78, label %83

78:                                               ; preds = %70
  %79 = load i8, ptr %5, align 1
  %80 = zext i8 %79 to i32
  %81 = or i32 %80, 32
  %82 = trunc i32 %81 to i8
  store i8 %82, ptr %5, align 1
  br label %83

83:                                               ; preds = %78, %70
  %84 = load ptr, ptr %3, align 8
  %85 = call noundef i32 @_ZN4Cube11CornerIndexEiii(i32 noundef 1, i32 noundef 1, i32 noundef 1)
  %86 = sext i32 %85 to i64
  %87 = getelementptr inbounds float, ptr %84, i64 %86
  %88 = load float, ptr %87, align 4
  %89 = load float, ptr %4, align 4
  %90 = fcmp olt float %88, %89
  br i1 %90, label %91, label %96

91:                                               ; preds = %83
  %92 = load i8, ptr %5, align 1
  %93 = zext i8 %92 to i32
  %94 = or i32 %93, 64
  %95 = trunc i32 %94 to i8
  store i8 %95, ptr %5, align 1
  br label %96

96:                                               ; preds = %91, %83
  %97 = load ptr, ptr %3, align 8
  %98 = call noundef i32 @_ZN4Cube11CornerIndexEiii(i32 noundef 0, i32 noundef 1, i32 noundef 1)
  %99 = sext i32 %98 to i64
  %100 = getelementptr inbounds float, ptr %97, i64 %99
  %101 = load float, ptr %100, align 4
  %102 = load float, ptr %4, align 4
  %103 = fcmp olt float %101, %102
  br i1 %103, label %104, label %109

104:                                              ; preds = %96
  %105 = load i8, ptr %5, align 1
  %106 = zext i8 %105 to i32
  %107 = or i32 %106, 128
  %108 = trunc i32 %107 to i8
  store i8 %108, ptr %5, align 1
  br label %109

109:                                              ; preds = %104, %96
  %110 = load i8, ptr %5, align 1
  ret i8 %110
}

; Function Attrs: mustprogress uwtable
define noundef i32 @_ZN13MarchingCubes12AddTrianglesEPKffP8Triangle(ptr noundef %0, float noundef %1, ptr noundef %2) #0 align 2 {
  %4 = alloca i32, align 4
  %5 = alloca ptr, align 8
  %6 = alloca float, align 4
  %7 = alloca ptr, align 8
  %8 = alloca i8, align 1
  %9 = alloca i32, align 4
  %10 = alloca %class.Triangle, align 8
  %11 = alloca i32, align 4
  %12 = alloca i32, align 4
  %13 = alloca i32, align 4
  store ptr %0, ptr %5, align 8
  store float %1, ptr %6, align 4
  store ptr %2, ptr %7, align 8
  store i32 0, ptr %9, align 4
  %14 = load ptr, ptr %5, align 8
  %15 = load float, ptr %6, align 4
  %16 = call noundef zeroext i8 @_ZN13MarchingCubes8GetIndexEPKff(ptr noundef %14, float noundef %15)
  store i8 %16, ptr %8, align 1
  %17 = load i8, ptr %8, align 1
  %18 = zext i8 %17 to i64
  %19 = getelementptr inbounds [256 x i32], ptr @_ZN13MarchingCubes8edgeMaskE, i64 0, i64 %18
  %20 = load i32, ptr %19, align 4
  %21 = icmp ne i32 %20, 0
  br i1 %21, label %23, label %22

22:                                               ; preds = %3
  store i32 0, ptr %4, align 4
  br label %131

23:                                               ; preds = %3
  store i32 1, ptr %13, align 4
  store i32 0, ptr %11, align 4
  br label %24

24:                                               ; preds = %42, %23
  %25 = load i32, ptr %11, align 4
  %26 = icmp slt i32 %25, 12
  br i1 %26, label %27, label %45

27:                                               ; preds = %24
  %28 = load i8, ptr %8, align 1
  %29 = zext i8 %28 to i64
  %30 = getelementptr inbounds [256 x i32], ptr @_ZN13MarchingCubes8edgeMaskE, i64 0, i64 %29
  %31 = load i32, ptr %30, align 4
  %32 = load i32, ptr %13, align 4
  %33 = and i32 %31, %32
  %34 = icmp ne i32 %33, 0
  br i1 %34, label %35, label %39

35:                                               ; preds = %27
  %36 = load i32, ptr %11, align 4
  %37 = load ptr, ptr %5, align 8
  %38 = load float, ptr %6, align 4
  call void @_ZN13MarchingCubes9SetVertexEiPKff(i32 noundef %36, ptr noundef %37, float noundef %38)
  br label %39

39:                                               ; preds = %35, %27
  %40 = load i32, ptr %13, align 4
  %41 = shl i32 %40, 1
  store i32 %41, ptr %13, align 4
  br label %42

42:                                               ; preds = %39
  %43 = load i32, ptr %11, align 4
  %44 = add nsw i32 %43, 1
  store i32 %44, ptr %11, align 4
  br label %24, !llvm.loop !52

45:                                               ; preds = %24
  store i32 0, ptr %11, align 4
  br label %46

46:                                               ; preds = %126, %45
  %47 = load i8, ptr %8, align 1
  %48 = zext i8 %47 to i64
  %49 = getelementptr inbounds [256 x [16 x i32]], ptr @_ZN13MarchingCubes9trianglesE, i64 0, i64 %48
  %50 = load i32, ptr %11, align 4
  %51 = sext i32 %50 to i64
  %52 = getelementptr inbounds [16 x i32], ptr %49, i64 0, i64 %51
  %53 = load i32, ptr %52, align 4
  %54 = icmp ne i32 %53, -1
  br i1 %54, label %55, label %129

55:                                               ; preds = %46
  store i32 0, ptr %12, align 4
  br label %56

56:                                               ; preds = %117, %55
  %57 = load i32, ptr %12, align 4
  %58 = icmp slt i32 %57, 3
  br i1 %58, label %59, label %120

59:                                               ; preds = %56
  %60 = load i8, ptr %8, align 1
  %61 = zext i8 %60 to i64
  %62 = getelementptr inbounds [256 x [16 x i32]], ptr @_ZN13MarchingCubes9trianglesE, i64 0, i64 %61
  %63 = load i32, ptr %11, align 4
  %64 = add nsw i32 %63, 0
  %65 = sext i32 %64 to i64
  %66 = getelementptr inbounds [16 x i32], ptr %62, i64 0, i64 %65
  %67 = load i32, ptr %66, align 4
  %68 = sext i32 %67 to i64
  %69 = getelementptr inbounds [12 x [3 x double]], ptr @_ZN13MarchingCubes10vertexListE, i64 0, i64 %68
  %70 = load i32, ptr %12, align 4
  %71 = sext i32 %70 to i64
  %72 = getelementptr inbounds [3 x double], ptr %69, i64 0, i64 %71
  %73 = load double, ptr %72, align 8
  %74 = getelementptr inbounds %class.Triangle, ptr %10, i32 0, i32 0
  %75 = getelementptr inbounds [3 x [3 x double]], ptr %74, i64 0, i64 0
  %76 = load i32, ptr %12, align 4
  %77 = sext i32 %76 to i64
  %78 = getelementptr inbounds [3 x double], ptr %75, i64 0, i64 %77
  store double %73, ptr %78, align 8
  %79 = load i8, ptr %8, align 1
  %80 = zext i8 %79 to i64
  %81 = getelementptr inbounds [256 x [16 x i32]], ptr @_ZN13MarchingCubes9trianglesE, i64 0, i64 %80
  %82 = load i32, ptr %11, align 4
  %83 = add nsw i32 %82, 1
  %84 = sext i32 %83 to i64
  %85 = getelementptr inbounds [16 x i32], ptr %81, i64 0, i64 %84
  %86 = load i32, ptr %85, align 4
  %87 = sext i32 %86 to i64
  %88 = getelementptr inbounds [12 x [3 x double]], ptr @_ZN13MarchingCubes10vertexListE, i64 0, i64 %87
  %89 = load i32, ptr %12, align 4
  %90 = sext i32 %89 to i64
  %91 = getelementptr inbounds [3 x double], ptr %88, i64 0, i64 %90
  %92 = load double, ptr %91, align 8
  %93 = getelementptr inbounds %class.Triangle, ptr %10, i32 0, i32 0
  %94 = getelementptr inbounds [3 x [3 x double]], ptr %93, i64 0, i64 1
  %95 = load i32, ptr %12, align 4
  %96 = sext i32 %95 to i64
  %97 = getelementptr inbounds [3 x double], ptr %94, i64 0, i64 %96
  store double %92, ptr %97, align 8
  %98 = load i8, ptr %8, align 1
  %99 = zext i8 %98 to i64
  %100 = getelementptr inbounds [256 x [16 x i32]], ptr @_ZN13MarchingCubes9trianglesE, i64 0, i64 %99
  %101 = load i32, ptr %11, align 4
  %102 = add nsw i32 %101, 2
  %103 = sext i32 %102 to i64
  %104 = getelementptr inbounds [16 x i32], ptr %100, i64 0, i64 %103
  %105 = load i32, ptr %104, align 4
  %106 = sext i32 %105 to i64
  %107 = getelementptr inbounds [12 x [3 x double]], ptr @_ZN13MarchingCubes10vertexListE, i64 0, i64 %106
  %108 = load i32, ptr %12, align 4
  %109 = sext i32 %108 to i64
  %110 = getelementptr inbounds [3 x double], ptr %107, i64 0, i64 %109
  %111 = load double, ptr %110, align 8
  %112 = getelementptr inbounds %class.Triangle, ptr %10, i32 0, i32 0
  %113 = getelementptr inbounds [3 x [3 x double]], ptr %112, i64 0, i64 2
  %114 = load i32, ptr %12, align 4
  %115 = sext i32 %114 to i64
  %116 = getelementptr inbounds [3 x double], ptr %113, i64 0, i64 %115
  store double %111, ptr %116, align 8
  br label %117

117:                                              ; preds = %59
  %118 = load i32, ptr %12, align 4
  %119 = add nsw i32 %118, 1
  store i32 %119, ptr %12, align 4
  br label %56, !llvm.loop !53

120:                                              ; preds = %56
  %121 = load ptr, ptr %7, align 8
  %122 = load i32, ptr %9, align 4
  %123 = add nsw i32 %122, 1
  store i32 %123, ptr %9, align 4
  %124 = sext i32 %122 to i64
  %125 = getelementptr inbounds %class.Triangle, ptr %121, i64 %124
  call void @llvm.memcpy.p0.p0.i64(ptr align 8 %125, ptr align 8 %10, i64 72, i1 false)
  br label %126

126:                                              ; preds = %120
  %127 = load i32, ptr %11, align 4
  %128 = add nsw i32 %127, 3
  store i32 %128, ptr %11, align 4
  br label %46, !llvm.loop !54

129:                                              ; preds = %46
  %130 = load i32, ptr %9, align 4
  store i32 %130, ptr %4, align 4
  br label %131

131:                                              ; preds = %129, %22
  %132 = load i32, ptr %4, align 4
  ret i32 %132
}