; Function Attrs: mustprogress nofree norecurse nosync nounwind memory(readwrite, inaccessiblemem: none) uwtable
define noundef i32 @_ZN13MarchingCubes12AddTrianglesEPKffP8Triangle(ptr noundef readonly captures(none) %0, float noundef %1, ptr noundef writeonly captures(none) %2) local_unnamed_addr #3 align 2 {
  %.sroa.0 = alloca [3 x [3 x double]], align 8
  %4 = load float, ptr %0, align 4
  %5 = fcmp olt float %4, %1
  %.0.i = zext i1 %5 to i8
  %6 = getelementptr inbounds nuw i8, ptr %0, i64 4
  %7 = load float, ptr %6, align 4
  %8 = fcmp olt float %7, %1
  %9 = or disjoint i8 %.0.i, 2
  %.1.i = select i1 %8, i8 %9, i8 %.0.i
  %10 = getelementptr inbounds nuw i8, ptr %0, i64 12
  %11 = load float, ptr %10, align 4
  %12 = fcmp olt float %11, %1
  %13 = or disjoint i8 %.1.i, 4
  %.2.i = select i1 %12, i8 %13, i8 %.1.i
  %14 = getelementptr inbounds nuw i8, ptr %0, i64 8
  %15 = load float, ptr %14, align 4
  %16 = fcmp olt float %15, %1
  %17 = or disjoint i8 %.2.i, 8
  %.3.i = select i1 %16, i8 %17, i8 %.2.i
  %18 = getelementptr inbounds nuw i8, ptr %0, i64 16
  %19 = load float, ptr %18, align 4
  %20 = fcmp olt float %19, %1
  %21 = or i8 %.3.i, 16
  %.4.i = select i1 %20, i8 %21, i8 %.3.i
  %22 = getelementptr inbounds nuw i8, ptr %0, i64 20
  %23 = load float, ptr %22, align 4
  %24 = fcmp olt float %23, %1
  %25 = or i8 %.4.i, 32
  %.5.i = select i1 %24, i8 %25, i8 %.4.i
  %26 = getelementptr inbounds nuw i8, ptr %0, i64 28
  %27 = load float, ptr %26, align 4
  %28 = fcmp olt float %27, %1
  %29 = or i8 %.5.i, 64
  %.6.i = select i1 %28, i8 %29, i8 %.5.i
  %30 = getelementptr inbounds nuw i8, ptr %0, i64 24
  %31 = load float, ptr %30, align 4
  %32 = fcmp olt float %31, %1
  %33 = or i8 %.6.i, -128
  %.7.i = select i1 %32, i8 %33, i8 %.6.i
  %34 = zext i8 %.7.i to i64
  %35 = add i8 %.7.i, 1
  %.not = icmp ult i8 %35, 2
  br i1 %.not, label %.loopexit, label %.preheader38

.preheader38:                                     ; preds = %3
  %36 = getelementptr inbounds nuw [256 x i32], ptr @_ZN13MarchingCubes8edgeMaskE, i64 0, i64 %34
  %37 = load i32, ptr %36, align 4
  br label %40

.preheader.lr.ph:                                 ; preds = %43
  %38 = getelementptr inbounds nuw [256 x [16 x i32]], ptr @_ZN13MarchingCubes9trianglesE, i64 0, i64 %34, i64 0
  %39 = load i32, ptr %38, align 16
  %.sroa.0.24..sroa_idx = getelementptr inbounds nuw i8, ptr %.sroa.0, i64 24
  %.sroa.0.48..sroa_idx = getelementptr inbounds nuw i8, ptr %.sroa.0, i64 48
  br label %.preheader

40:                                               ; preds = %.preheader38, %43
  %.040 = phi i32 [ 1, %.preheader38 ], [ %44, %43 ]
  %.03239 = phi i32 [ 0, %.preheader38 ], [ %45, %43 ]
  %41 = and i32 %37, %.040
  %.not36 = icmp eq i32 %41, 0
  br i1 %.not36, label %43, label %42

42:                                               ; preds = %40
  tail call void @_ZN13MarchingCubes9SetVertexEiPKff(i32 noundef %.03239, ptr noundef nonnull %0, float noundef %1)
  br label %43

43:                                               ; preds = %42, %40
  %44 = shl i32 %.040, 1
  %45 = add nuw nsw i32 %.03239, 1
  %exitcond.not = icmp eq i32 %45, 12
  br i1 %exitcond.not, label %.preheader.lr.ph, label %40, !llvm.loop !19

.preheader:                                       ; preds = %.preheader.lr.ph, %.preheader
  %indvars.iv48 = phi i64 [ 0, %.preheader.lr.ph ], [ %indvars.iv.next49, %.preheader ]
  %indvars.iv = phi i64 [ 0, %.preheader.lr.ph ], [ %indvars.iv.next, %.preheader ]
  %46 = phi i32 [ %39, %.preheader.lr.ph ], [ %61, %.preheader ]
  %47 = sext i32 %46 to i64
  %48 = add nuw nsw i64 %indvars.iv, 1
  %49 = getelementptr inbounds nuw [256 x [16 x i32]], ptr @_ZN13MarchingCubes9trianglesE, i64 0, i64 %34, i64 %48
  %50 = load i32, ptr %49, align 4
  %51 = sext i32 %50 to i64
  %52 = add nuw nsw i64 %indvars.iv, 2
  %53 = getelementptr inbounds nuw [256 x [16 x i32]], ptr @_ZN13MarchingCubes9trianglesE, i64 0, i64 %34, i64 %52
  %54 = load i32, ptr %53, align 4
  %55 = sext i32 %54 to i64
  %56 = mul nsw i64 %47, 24
  %scevgep = getelementptr i8, ptr @_ZN13MarchingCubes10vertexListE, i64 %56
  call void @llvm.memcpy.p0.p0.i64(ptr noundef nonnull align 8 dereferenceable(24) %.sroa.0, ptr noundef nonnull align 8 dereferenceable(24) %scevgep, i64 24, i1 false)
  %57 = mul nsw i64 %51, 24
  %scevgep45 = getelementptr i8, ptr @_ZN13MarchingCubes10vertexListE, i64 %57
  call void @llvm.memcpy.p0.p0.i64(ptr noundef nonnull align 8 dereferenceable(24) %.sroa.0.24..sroa_idx, ptr noundef nonnull align 8 dereferenceable(24) %scevgep45, i64 24, i1 false)
  %58 = mul nsw i64 %55, 24
  %scevgep46 = getelementptr i8, ptr @_ZN13MarchingCubes10vertexListE, i64 %58
  call void @llvm.memcpy.p0.p0.i64(ptr noundef nonnull align 8 dereferenceable(24) %.sroa.0.48..sroa_idx, ptr noundef nonnull align 8 dereferenceable(24) %scevgep46, i64 24, i1 false)
  %indvars.iv.next49 = add nuw nsw i64 %indvars.iv48, 1
  %59 = getelementptr inbounds nuw %class.Triangle, ptr %2, i64 %indvars.iv48
  call void @llvm.memcpy.p0.p0.i64(ptr noundef nonnull align 8 dereferenceable(72) %59, ptr noundef nonnull align 8 dereferenceable(72) %.sroa.0, i64 72, i1 false)
  %indvars.iv.next = add nuw nsw i64 %indvars.iv, 3
  %60 = getelementptr inbounds nuw [256 x [16 x i32]], ptr @_ZN13MarchingCubes9trianglesE, i64 0, i64 %34, i64 %indvars.iv.next
  %61 = load i32, ptr %60, align 4
  %.not35 = icmp eq i32 %61, -1
  br i1 %.not35, label %.loopexit.loopexit, label %.preheader, !llvm.loop !20

.loopexit.loopexit:                               ; preds = %.preheader
  %62 = trunc nuw i64 %indvars.iv.next49 to i32
  br label %.loopexit

.loopexit:                                        ; preds = %.loopexit.loopexit, %3
  %.034 = phi i32 [ 0, %3 ], [ %62, %.loopexit.loopexit ]
  ret i32 %.034
}